(lp0
V__builtin__
p1
aV__future__
p2
aV__main__
p3
aV_winreg
p4
aVabc
p5
aVaepack
p6
aVaetools
p7
aVaetypes
p8
aVaifc
p9
aVal
p10
aVAL
p11
aVanydbm
p12
aVapplesingle
p13
aVargparse
p14
aVarray
p15
aVast
p16
aVasynchat
p17
aVasyncore
p18
aVatexit
p19
aVaudioop
p20
aVautoGIL
p21
aVbase64
p22
aVBaseHTTPServer
p23
aVBastion
p24
aVbdb
p25
aVbinascii
p26
aVbinhex
p27
aVbisect
p28
aVbsddb
p29
aVbuildtools
p30
aVbz2
p31
aVcalendar
p32
aVCarbon
p33
aVcd
p34
aVcfmfile
p35
aVcgi
p36
aVCGIHTTPServer
p37
aVcgitb
p38
aVchunk
p39
aVcmath
p40
aVcmd
p41
aVcode
p42
aVcodecs
p43
aVcodeop
p44
aVcollections
p45
aVColorPicker
p46
aVcolorsys
p47
aVcommands
p48
aVcompileall
p49
aVcompiler
p50
aVConfigParser
p51
aVcontextlib
p52
aVCookie
p53
aVcookielib
p54
aVcopy
p55
aVcopy_reg
p56
aVcPickle
p57
aVcProfile
p58
aVcrypt
p59
aVcStringIO
p60
aVcsv
p61
aVctypes
p62
aVcurses
p63
aVdatetime
p64
aVdbhash
p65
aVdbm
p66
aVdecimal
p67
aVDEVICE
p68
aVdifflib
p69
aVdircache
p70
aVdis
p71
aVdistutils
p72
aVdl
p73
aVdoctest
p74
aVDocXMLRPCServer
p75
aVdumbdbm
p76
aVdummy_thread
p77
aVdummy_threading
p78
aVEasyDialogs
p79
aVemail
p80
aVencodings
p81
aVensurepip
p82
aVerrno
p83
aVexceptions
p84
aVfcntl
p85
aVfilecmp
p86
aVfileinput
p87
aVfindertools
p88
aVFL
p89
aVfl
p90
aVflp
p91
aVfm
p92
aVfnmatch
p93
aVformatter
p94
aVfpectl
p95
aVfpformat
p96
aVfractions
p97
aVFrameWork
p98
aVftplib
p99
aVfunctools
p100
aVfuture_builtins
p101
aVgc
p102
aVgdbm
p103
aVgensuitemodule
p104
aVgetopt
p105
aVgetpass
p106
aVgettext
p107
aVgl
p108
aVGL
p109
aVglob
p110
aVgrp
p111
aVgzip
p112
aVhashlib
p113
aVheapq
p114
aVhmac
p115
aVhotshot
p116
aVhtmlentitydefs
p117
aVhtmllib
p118
aVHTMLParser
p119
aVhttplib
p120
aVic
p121
aVicopen
p122
aVimageop
p123
aVimaplib
p124
aVimgfile
p125
aVimghdr
p126
aVimp
p127
aVimportlib
p128
aVimputil
p129
aVinspect
p130
aVio
p131
aVitertools
p132
aVjpeg
p133
aVjson
p134
aVkeyword
p135
aVlib2to3
p136
aVlinecache
p137
aVlocale
p138
aVlogging
p139
aVmacerrors
p140
aVMacOS
p141
aVmacostools
p142
aVmacpath
p143
aVmacresource
p144
aVmailbox
p145
aVmailcap
p146
aVmarshal
p147
aVmath
p148
aVmd5
p149
aVmhlib
p150
aVmimetools
p151
aVmimetypes
p152
aVMimeWriter
p153
aVmimify
p154
aVMiniAEFrame
p155
aVmmap
p156
aVmodulefinder
p157
aVmsilib
p158
aVmsvcrt
p159
aVmultifile
p160
aVmultiprocessing
p161
aVmutex
p162
aVNav
p163
aVnetrc
p164
aVnew
p165
aVnis
p166
aVnntplib
p167
aVnumbers
p168
aVoperator
p169
aVoptparse
p170
aVos
p171
aVossaudiodev
p172
aVparser
p173
aVpdb
p174
aVpickle
p175
aVpickletools
p176
aVpipes
p177
aVPixMapWrapper
p178
aVpkgutil
p179
aVplatform
p180
aVplistlib
p181
aVpopen2
p182
aVpoplib
p183
aVposix
p184
aVposixfile
p185
aVpprint
p186
aVprofile
p187
aVpstats
p188
aVpty
p189
aVpwd
p190
aVpy_compile
p191
aVpyclbr
p192
aVpydoc
p193
aVQueue
p194
aVquopri
p195
aVrandom
p196
aVre
p197
aVreadline
p198
aVresource
p199
aVrexec
p200
aVrfc822
p201
aVrlcompleter
p202
aVrobotparser
p203
aVrunpy
p204
aVsched
p205
aVScrolledText
p206
aVselect
p207
aVsets
p208
aVsgmllib
p209
aVsha
p210
aVshelve
p211
aVshlex
p212
aVshutil
p213
aVsignal
p214
aVSimpleHTTPServer
p215
aVSimpleXMLRPCServer
p216
aVsite
p217
aVsmtpd
p218
aVsmtplib
p219
aVsndhdr
p220
aVsocket
p221
aVSocketServer
p222
aVspwd
p223
aVsqlite3
p224
aVssl
p225
aVstat
p226
aVstatvfs
p227
aVstring
p228
aVStringIO
p229
aVstringprep
p230
aVstruct
p231
aVsubprocess
p232
aVsunau
p233
aVsunaudiodev
p234
aVSUNAUDIODEV
p235
aVsymbol
p236
aVsymtable
p237
aVsys
p238
aVsysconfig
p239
aVsyslog
p240
aVtabnanny
p241
aVtarfile
p242
aVtelnetlib
p243
aVtempfile
p244
aVtermios
p245
aVtest
p246
aVtextwrap
p247
aVthread
p248
aVthreading
p249
aVtime
p250
aVtimeit
p251
aVTix
p252
aVTkinter
p253
aVtoken
p254
aVtokenize
p255
aVtrace
p256
aVtraceback
p257
aVttk
p258
aVtty
p259
aVturtle
p260
aVtypes
p261
aVunicodedata
p262
aVunittest
p263
aVurllib
p264
aVurllib2
p265
aVurlparse
p266
aVuser
p267
aVUserDict
p268
aVUserList
p269
aVUserString
p270
aVuu
p271
aVuuid
p272
aVvideoreader
p273
aVW
p274
aVwarnings
p275
aVwave
p276
aVweakref
p277
aVwebbrowser
p278
aVwhichdb
p279
aVwinsound
p280
aVwsgiref
p281
aVxdrlib
p282
aVxml
p283
aVxmlrpclib
p284
aVzipfile
p285
aVzipimport
p286
aVzlib
p287
a.